; Function Attrs: nounwind uwtable
define void @qasm_recordInitPlus(ptr noundef readonly byval(%struct.Qureg) align 8 captures(none) %0) local_unnamed_addr #0 {
  %2 = alloca [1025 x i8], align 16
  %3 = getelementptr inbounds nuw i8, ptr %0, i64 128
  %4 = load ptr, ptr %3, align 8, !tbaa !4
  %5 = getelementptr inbounds nuw i8, ptr %4, i64 16
  %6 = load i32, ptr %5, align 8, !tbaa !14
  %.not = icmp eq i32 %6, 0
  br i1 %.not, label %33, label %7

7:                                                ; preds = %1
  call void @llvm.lifetime.start.p0(i64 1025, ptr nonnull %2) #16
  call void @llvm.memcpy.p0.p0.i64(ptr noundef nonnull align 16 dereferenceable(23) %2, ptr noundef nonnull align 1 dereferenceable(23) @.str.38, i64 23, i1 false)
  call void (ptr, ptr, ...) @qasm_recordComment(ptr noundef nonnull byval(%struct.Qureg) align 8 %0, ptr noundef nonnull %2)
  tail call void @qasm_recordInitZero(ptr noundef nonnull byval(%struct.Qureg) align 8 %0)
  %8 = call i32 (ptr, i64, ptr, ...) @snprintf(ptr noundef nonnull dereferenceable(1) %2, i64 noundef 1024, ptr noundef nonnull @.str.36, ptr noundef nonnull @.str.18, ptr noundef nonnull @.str.1) #16
  %9 = icmp sgt i32 %8, 1023
  br i1 %9, label %10, label %11

10:                                               ; preds = %7
  tail call void @raiseQASMBufferOverflow(ptr noundef nonnull @__func__.qasm_recordInitPlus) #16
  br label %11

11:                                               ; preds = %10, %7
  %12 = load ptr, ptr %4, align 8, !tbaa !18
  %13 = getelementptr inbounds nuw i8, ptr %4, i64 8
  %14 = load i32, ptr %13, align 8, !tbaa !17
  %15 = getelementptr inbounds nuw i8, ptr %4, i64 12
  %16 = load i32, ptr %15, align 4, !tbaa !20
  %17 = add nsw i32 %16, %8
  %18 = icmp sgt i32 %17, %14
  br i1 %18, label %19, label %addStringToQASM.exit

19:                                               ; preds = %11
  %20 = shl nsw i32 %14, 1
  %21 = icmp sgt i32 %17, %20
  br i1 %21, label %22, label %23

22:                                               ; preds = %19
  tail call void @raiseQASMBufferOverflow(ptr noundef nonnull @__func__.addStringToQASM) #16
  br label %23

23:                                               ; preds = %22, %19
  %24 = sext i32 %20 to i64
  %25 = tail call noalias ptr @malloc(i64 noundef %24) #15
  %strcpy.i = tail call ptr @strcpy(ptr noundef nonnull dereferenceable(1) %25, ptr noundef nonnull dereferenceable(1) %12)
  tail call void @free(ptr noundef %12) #16
  store i32 %20, ptr %13, align 8, !tbaa !17
  store ptr %25, ptr %4, align 8, !tbaa !18
  br label %addStringToQASM.exit

addStringToQASM.exit:                             ; preds = %11, %23
  %.020.i = phi i32 [ %20, %23 ], [ %14, %11 ]
  %.0.i = phi ptr [ %25, %23 ], [ %12, %11 ]
  %26 = sext i32 %16 to i64
  %27 = getelementptr inbounds i8, ptr %.0.i, i64 %26
  %28 = sub nsw i32 %.020.i, %16
  %29 = sext i32 %28 to i64
  %30 = call i32 (ptr, i64, ptr, ...) @snprintf(ptr noundef %27, i64 noundef %29, ptr noundef nonnull @.str.3, ptr noundef nonnull %2) #16
  %31 = load i32, ptr %15, align 4, !tbaa !20
  %32 = add nsw i32 %31, %30
  store i32 %32, ptr %15, align 4, !tbaa !20
  call void @llvm.lifetime.end.p0(i64 1025, ptr nonnull %2) #16
  br label %33

33:                                               ; preds = %1, %addStringToQASM.exit
  ret void
}